; Function Attrs: null_pointer_is_valid sspstrong uwtable
define noundef zeroext i1 @uat_fld_chk_field(ptr noundef readnone captures(none) %0, ptr noundef %1, i32 noundef %2, ptr noundef readnone captures(none) %3, ptr noundef readnone captures(none) %4, ptr noundef writeonly captures(none) initializes((0, 8)) %5) local_unnamed_addr #0 {
  %.not = icmp eq i32 %2, 0
  br i1 %.not, label %18, label %7

7:                                                ; preds = %6
  %8 = zext i32 %2 to i64
  %9 = tail call noalias ptr @g_strndup(ptr noundef %1, i64 noundef %8)
  %10 = tail call ptr @g_strchug(ptr noundef %9)
  %11 = tail call ptr @g_strchomp(ptr noundef %10)
  %12 = tail call ptr @proto_registrar_get_byname(ptr noundef %9)
  %.not12 = icmp eq ptr %12, null
  br i1 %.not12, label %13, label %15

13:                                               ; preds = %7
  %14 = tail call ptr @proto_registrar_get_byalias(ptr noundef %9)
  %.not13 = icmp eq ptr %14, null
  br i1 %.not13, label %16, label %15

15:                                               ; preds = %13, %7
  store ptr null, ptr %5, align 8
  tail call void @g_free(ptr noundef %9)
  br label %19

16:                                               ; preds = %13
  %17 = tail call noalias ptr @g_strdup(ptr noundef nonnull @.str.23)
  store ptr %17, ptr %5, align 8
  tail call void @g_free(ptr noundef %9)
  br label %19

18:                                               ; preds = %6
  store ptr null, ptr %5, align 8
  br label %19

19:                                               ; preds = %15, %16, %18
  %.1 = phi i1 [ true, %18 ], [ true, %15 ], [ false, %16 ]
  ret i1 %.1
}